; Function Attrs: nounwind uwtable
define range(i32 -44, 1) i32 @arkRelaxSetLowerBound(ptr noundef %0, double noundef %1) local_unnamed_addr #0 {
  %.not.i = icmp eq ptr %0, null
  br i1 %.not.i, label %3, label %4

3:                                                ; preds = %2
  tail call void (ptr, i32, i32, ptr, ptr, ptr, ...) @arkProcessError(ptr noundef null, i32 noundef -21, i32 noundef 42, ptr noundef nonnull @__func__.arkRelaxSetLowerBound, ptr noundef nonnull @.str, ptr noundef nonnull @.str.15) #8
  br label %arkRelaxAccessMem.exit.thread

4:                                                ; preds = %2
  %5 = getelementptr inbounds nuw i8, ptr %0, i64 648
  %6 = load ptr, ptr %5, align 8
  %.not11.i = icmp eq ptr %6, null
  br i1 %.not11.i, label %7, label %arkRelaxAccessMem.exit

7:                                                ; preds = %4
  tail call void (ptr, i32, i32, ptr, ptr, ptr, ...) @arkProcessError(ptr noundef nonnull %0, i32 noundef -44, i32 noundef 50, ptr noundef nonnull @__func__.arkRelaxSetLowerBound, ptr noundef nonnull @.str, ptr noundef nonnull @.str.19) #8
  br label %arkRelaxAccessMem.exit.thread

arkRelaxAccessMem.exit:                           ; preds = %4
  %8 = fcmp ogt double %1, 0.000000e+00
  %9 = fcmp olt double %1, 1.000000e+00
  %or.cond = and i1 %8, %9
  %10 = getelementptr inbounds nuw i8, ptr %6, i64 112
  br i1 %or.cond, label %11, label %12

11:                                               ; preds = %arkRelaxAccessMem.exit
  store double %1, ptr %10, align 8
  br label %arkRelaxAccessMem.exit.thread

12:                                               ; preds = %arkRelaxAccessMem.exit
  store double 8.000000e-01, ptr %10, align 8
  br label %arkRelaxAccessMem.exit.thread

arkRelaxAccessMem.exit.thread:                    ; preds = %3, %7, %11, %12
  %.0 = phi i32 [ 0, %12 ], [ 0, %11 ], [ -21, %3 ], [ -44, %7 ]
  ret i32 %.0
}